; Function Attrs: mustprogress uwtable
define dso_local void @_ZN3igl15quats_to_columnESt6vectorIN5Eigen10QuaternionIdLi0EEENS1_17aligned_allocatorIS3_EEE(ptr dead_on_unwind noalias writable sret(%"class.Eigen::Matrix") align 8 captures(none) initializes((0, 16)) %0, ptr noundef nonnull %1) local_unnamed_addr #0 personality ptr @__gxx_personality_v0 {
  %3 = alloca %"class.std::vector", align 8
  tail call void @llvm.memset.p0.i64(ptr noundef nonnull align 8 dereferenceable(16) %0, i8 0, i64 16, i1 false)
  invoke void @_ZNSt6vectorIN5Eigen10QuaternionIdLi0EEENS0_17aligned_allocatorIS2_EEEC2ERKS5_(ptr noundef nonnull align 8 dereferenceable(24) %3, ptr noundef nonnull align 8 dereferenceable(24) %1)
          to label %4 unwind label %8

4:                                                ; preds = %2
  invoke void @_ZN3igl15quats_to_columnESt6vectorIN5Eigen10QuaternionIdLi0EEENS1_17aligned_allocatorIS3_EEERNS1_6MatrixIdLin1ELi1ELi0ELin1ELi1EEE(ptr noundef nonnull %3, ptr noundef nonnull align 8 dereferenceable(16) %0)
          to label %5 unwind label %10

5:                                                ; preds = %4
  %6 = load ptr, ptr %3, align 8, !tbaa !10
  %.not.i.i.i = icmp eq ptr %6, null
  br i1 %.not.i.i.i, label %_ZNSt6vectorIN5Eigen10QuaternionIdLi0EEENS0_17aligned_allocatorIS2_EEED2Ev.exit, label %7

7:                                                ; preds = %5
  call void @free(ptr noundef nonnull %6) #7
  br label %_ZNSt6vectorIN5Eigen10QuaternionIdLi0EEENS0_17aligned_allocatorIS2_EEED2Ev.exit

_ZNSt6vectorIN5Eigen10QuaternionIdLi0EEENS0_17aligned_allocatorIS2_EEED2Ev.exit: ; preds = %5, %7
  ret void

8:                                                ; preds = %2
  %9 = landingpad { ptr, i32 }
          cleanup
  br label %_ZNSt6vectorIN5Eigen10QuaternionIdLi0EEENS0_17aligned_allocatorIS2_EEED2Ev.exit5

10:                                               ; preds = %4
  %11 = landingpad { ptr, i32 }
          cleanup
  %12 = load ptr, ptr %3, align 8, !tbaa !10
  %.not.i.i.i4 = icmp eq ptr %12, null
  br i1 %.not.i.i.i4, label %_ZNSt6vectorIN5Eigen10QuaternionIdLi0EEENS0_17aligned_allocatorIS2_EEED2Ev.exit5, label %13

13:                                               ; preds = %10
  call void @free(ptr noundef nonnull %12) #7
  br label %_ZNSt6vectorIN5Eigen10QuaternionIdLi0EEENS0_17aligned_allocatorIS2_EEED2Ev.exit5

_ZNSt6vectorIN5Eigen10QuaternionIdLi0EEENS0_17aligned_allocatorIS2_EEED2Ev.exit5: ; preds = %13, %10, %8
  %.pn = phi { ptr, i32 } [ %9, %8 ], [ %11, %10 ], [ %11, %13 ]
  %14 = load ptr, ptr %0, align 8, !tbaa !15
  call void @free(ptr noundef %14) #7
  resume { ptr, i32 } %.pn
}